
firmware.elf:     file format elf32-littleriscv


Disassembly of section .text:

10000000 <main>:
10000000:	188000ef          	jal	10000188 <uartInit>

10000004 <while>:
10000004:	00000413          	li	s0,0
10000008:	16000493          	li	s1,352

1000000c <get_next_byte>:
1000000c:	1d8000ef          	jal	100001e4 <uartGetByte>
10000010:	00241293          	slli	t0,s0,0x2
10000014:	00000313          	li	t1,0
10000018:	006282b3          	add	t0,t0,t1
1000001c:	00a2a023          	sw	a0,0(t0)
10000020:	00140413          	addi	s0,s0,1
10000024:	fe9444e3          	blt	s0,s1,1000000c <get_next_byte>

10000028 <process>:
10000028:	00000293          	li	t0,0
1000002c:	0002a303          	lw	t1,0(t0)
10000030:	0042ae83          	lw	t4,4(t0)
10000034:	0082af03          	lw	t5,8(t0)
10000038:	00c2af83          	lw	t6,12(t0)
1000003c:	04000a93          	li	s5,64
10000040:	000aa383          	lw	t2,0(s5)
10000044:	004aae03          	lw	t3,4(s5)
10000048:	008aa503          	lw	a0,8(s5)
1000004c:	00caa583          	lw	a1,12(s5)
10000050:	00734333          	xor	t1,t1,t2
10000054:	01ceceb3          	xor	t4,t4,t3
10000058:	00af4f33          	xor	t5,t5,a0
1000005c:	00bfcfb3          	xor	t6,t6,a1
10000060:	0062a023          	sw	t1,0(t0)
10000064:	01d2a223          	sw	t4,4(t0)
10000068:	01e2a423          	sw	t5,8(t0)
1000006c:	01f2a623          	sw	t6,12(t0)
10000070:	00100b13          	li	s6,1
10000074:	010a8b93          	addi	s7,s5,16

10000078 <main_rounds_loop>:
10000078:	0002a303          	lw	t1,0(t0)
1000007c:	0042ae83          	lw	t4,4(t0)
10000080:	0082af03          	lw	t5,8(t0)
10000084:	00c2af83          	lw	t6,12(t0)
10000088:	000ba383          	lw	t2,0(s7)
1000008c:	004bae03          	lw	t3,4(s7)
10000090:	008ba503          	lw	a0,8(s7)
10000094:	00cba583          	lw	a1,12(s7)
10000098:	267303b3          	aes32esmi	t2,t1,t2,0x0
1000009c:	667e83b3          	aes32esmi	t2,t4,t2,0x1
100000a0:	a67f03b3          	aes32esmi	t2,t5,t2,0x2
100000a4:	e67f83b3          	aes32esmi	t2,t6,t2,0x3
100000a8:	27c30e33          	aes32esmi	t3,t1,t3,0x0
100000ac:	67ce8e33          	aes32esmi	t3,t4,t3,0x1
100000b0:	a7cf0e33          	aes32esmi	t3,t5,t3,0x2
100000b4:	e7cf8e33          	aes32esmi	t3,t6,t3,0x3
100000b8:	26a30533          	aes32esmi	a0,t1,a0,0x0
100000bc:	66ae8533          	aes32esmi	a0,t4,a0,0x1
100000c0:	a6af0533          	aes32esmi	a0,t5,a0,0x2
100000c4:	e6af8533          	aes32esmi	a0,t6,a0,0x3
100000c8:	26b305b3          	aes32esmi	a1,t1,a1,0x0
100000cc:	66be85b3          	aes32esmi	a1,t4,a1,0x1
100000d0:	a6bf05b3          	aes32esmi	a1,t5,a1,0x2
100000d4:	e6bf85b3          	aes32esmi	a1,t6,a1,0x3
100000d8:	0072a023          	sw	t2,0(t0)
100000dc:	01c2a223          	sw	t3,4(t0)
100000e0:	00a2a423          	sw	a0,8(t0)
100000e4:	00b2a623          	sw	a1,12(t0)
100000e8:	001b0b13          	addi	s6,s6,1
100000ec:	010b8b93          	addi	s7,s7,16
100000f0:	00a00393          	li	t2,10
100000f4:	f87b12e3          	bne	s6,t2,10000078 <main_rounds_loop>
100000f8:	0002a303          	lw	t1,0(t0)
100000fc:	0042ae83          	lw	t4,4(t0)
10000100:	0082af03          	lw	t5,8(t0)
10000104:	00c2af83          	lw	t6,12(t0)
10000108:	000ba383          	lw	t2,0(s7)
1000010c:	004bae03          	lw	t3,4(s7)
10000110:	008ba503          	lw	a0,8(s7)
10000114:	00cba583          	lw	a1,12(s7)
10000118:	227303b3          	aes32esi	t2,t1,t2,0x0
1000011c:	63ce8e33          	aes32esi	t3,t4,t3,0x1
10000120:	a2af0533          	aes32esi	a0,t5,a0,0x2
10000124:	e2bf85b3          	aes32esi	a1,t6,a1,0x3
10000128:	0072a023          	sw	t2,0(t0)
1000012c:	01c2a223          	sw	t3,4(t0)
10000130:	00a2a423          	sw	a0,8(t0)
10000134:	00b2a623          	sw	a1,12(t0)
10000138:	00000413          	li	s0,0
1000013c:	16000493          	li	s1,352

10000140 <send_next_byte>:
10000140:	00241293          	slli	t0,s0,0x2
10000144:	00000313          	li	t1,0
10000148:	006282b3          	add	t0,t0,t1
1000014c:	0002a503          	lw	a0,0(t0)
10000150:	07c000ef          	jal	100001cc <uartSendByte>
10000154:	00140413          	addi	s0,s0,1
10000158:	fe9444e3          	blt	s0,s1,10000140 <send_next_byte>
1000015c:	ea9ff06f          	j	10000004 <while>

10000160 <exit>:
10000160:	0000006f          	j	10000160 <exit>

10000164 <ledWrite>:
10000164:	20000337          	lui	t1,0x20000
10000168:	10030313          	addi	t1,t1,256 # 20000100 <wait_rx+0xfffff18>
1000016c:	00532223          	sw	t0,4(t1)
10000170:	00008067          	ret

10000174 <delay>:
10000174:	000f42b7          	lui	t0,0xf4
10000178:	24028293          	addi	t0,t0,576 # f4240 <FCR_FIFO_8+0xf41c0>

1000017c <delay_loop>:
1000017c:	fff28293          	addi	t0,t0,-1
10000180:	fe029ee3          	bnez	t0,1000017c <delay_loop>
10000184:	00008067          	ret

10000188 <uartInit>:
10000188:	200002b7          	lui	t0,0x20000
1000018c:	08000313          	li	t1,128
10000190:	00628623          	sb	t1,12(t0) # 2000000c <wait_rx+0xffffe24>
10000194:	01b00313          	li	t1,27
10000198:	00628023          	sb	t1,0(t0)
1000019c:	00306313          	ori	t1,zero,3
100001a0:	00036313          	ori	t1,t1,0
100001a4:	00036313          	ori	t1,t1,0
100001a8:	00628623          	sb	t1,12(t0)
100001ac:	00106313          	ori	t1,zero,1
100001b0:	00036313          	ori	t1,t1,0
100001b4:	08036313          	ori	t1,t1,128
100001b8:	00236313          	ori	t1,t1,2
100001bc:	00436313          	ori	t1,t1,4
100001c0:	00628423          	sb	t1,8(t0)
100001c4:	00028223          	sb	zero,4(t0)
100001c8:	00008067          	ret

100001cc <uartSendByte>:
100001cc:	20000337          	lui	t1,0x20000

100001d0 <wait_tx>:
100001d0:	01430283          	lb	t0,20(t1) # 20000014 <wait_rx+0xffffe2c>
100001d4:	0202f293          	andi	t0,t0,32
100001d8:	fe028ce3          	beqz	t0,100001d0 <wait_tx>
100001dc:	00a30023          	sb	a0,0(t1)
100001e0:	00008067          	ret

100001e4 <uartGetByte>:
100001e4:	20000337          	lui	t1,0x20000

100001e8 <wait_rx>:
100001e8:	01430283          	lb	t0,20(t1) # 20000014 <wait_rx+0xffffe2c>
100001ec:	0012f293          	andi	t0,t0,1
100001f0:	fe028ce3          	beqz	t0,100001e8 <wait_rx>
100001f4:	00030503          	lb	a0,0(t1)
100001f8:	00008067          	ret
